; Function Attrs: mustprogress uwtable
define internal noundef signext i8 @_ZN6icu_75L15ValueComparatorE8UElementS0_(ptr %val1.coerce, ptr %val2.coerce) #1 {
entry:
  %fUnion.i.i = getelementptr inbounds i8, ptr %val1.coerce, i64 8
  %0 = load i16, ptr %fUnion.i.i, align 8
  %conv2.i14.i = and i16 %0, 1
  %tobool.not.i = icmp eq i16 %conv2.i14.i, 0
  br i1 %tobool.not.i, label %if.else.i, label %if.then.i

if.then.i:                                        ; preds = %entry
  %fUnion.i5.i = getelementptr inbounds i8, ptr %val2.coerce, i64 8
  %1 = load i16, ptr %fUnion.i5.i, align 8
  %conv2.i615.i = and i16 %1, 1
  %tobool3.i = icmp ne i16 %conv2.i615.i, 0
  br label %_ZNK6icu_7513UnicodeStringeqERKS0_.exit

if.else.i:                                        ; preds = %entry
  %cmp.i.i.i = icmp slt i16 %0, 0
  %2 = ashr i16 %0, 5
  %shr.i.i.i = sext i16 %2 to i32
  %fLength.i.i = getelementptr inbounds i8, ptr %val1.coerce, i64 12
  %3 = load i32, ptr %fLength.i.i, align 4
  %cond.i.i = select i1 %cmp.i.i.i, i32 %3, i32 %shr.i.i.i
  %fUnion.i.i7.i = getelementptr inbounds i8, ptr %val2.coerce, i64 8
  %4 = load i16, ptr %fUnion.i.i7.i, align 8
  %cmp.i.i8.i = icmp slt i16 %4, 0
  %5 = ashr i16 %4, 5
  %shr.i.i9.i = sext i16 %5 to i32
  %fLength.i10.i = getelementptr inbounds i8, ptr %val2.coerce, i64 12
  %6 = load i32, ptr %fLength.i10.i, align 4
  %cond.i11.i = select i1 %cmp.i.i8.i, i32 %6, i32 %shr.i.i9.i
  %conv2.i1316.i = and i16 %4, 1
  %tobool7.not.i = icmp eq i16 %conv2.i1316.i, 0
  %cmp.i = icmp eq i32 %cond.i.i, %cond.i11.i
  %or.cond.i = and i1 %tobool7.not.i, %cmp.i
  br i1 %or.cond.i, label %land.rhs.i, label %_ZNK6icu_7513UnicodeStringeqERKS0_.exit

land.rhs.i:                                       ; preds = %if.else.i
  %call8.i = tail call noundef signext i8 @_ZNK6icu_7513UnicodeString8doEqualsERKS0_i(ptr noundef nonnull align 8 dereferenceable(64) %val1.coerce, ptr noundef nonnull align 8 dereferenceable(64) %val2.coerce, i32 noundef %cond.i.i)
  %tobool9.i = icmp ne i8 %call8.i, 0
  br label %_ZNK6icu_7513UnicodeStringeqERKS0_.exit

_ZNK6icu_7513UnicodeStringeqERKS0_.exit:          ; preds = %if.then.i, %if.else.i, %land.rhs.i
  %retval.0.i = phi i1 [ %tobool3.i, %if.then.i ], [ false, %if.else.i ], [ %tobool9.i, %land.rhs.i ]
  %conv = zext i1 %retval.0.i to i8
  ret i8 %conv
}